target datalayout = "e-m:e-p270:32:32-p271:32:32-p272:64:64-i64:64-i128:128-f80:128-n8:16:32:64-S128"
target triple = "x86_64-pc-linux-gnu"

%"class.llvm::APInt" = type <{ %union.anon, i32, [4 x i8] }>
%union.anon = type { i64 }
%"struct.llvm::ObjectSizeOpts" = type { i8, i8, i8, ptr }
%"class.llvm::ObjectSizeOffsetVisitor" = type <{ ptr, ptr, %"struct.llvm::ObjectSizeOpts", i32, [4 x i8], %"class.llvm::APInt", %"class.llvm::SmallDenseMap", i32, [4 x i8] }>
%"class.llvm::SmallDenseMap" = type { i32, i32, %"struct.llvm::AlignedCharArrayUnion" }
%"struct.llvm::AlignedCharArrayUnion" = type { [320 x i8] }
%"struct.llvm::SizeOffsetAPInt" = type { %"struct.llvm::SizeOffsetType" }
%"struct.llvm::SizeOffsetType" = type { %"class.llvm::APInt", %"class.llvm::APInt" }

@_ZN4llvm23ObjectSizeOffsetVisitorC1ERKNS_10DataLayoutEPKNS_17TargetLibraryInfoERNS_11LLVMContextENS_14ObjectSizeOptsE = unnamed_addr alias void (ptr, ptr, ptr, ptr, i64, ptr), ptr @_ZN4llvm23ObjectSizeOffsetVisitorC2ERKNS_10DataLayoutEPKNS_17TargetLibraryInfoERNS_11LLVMContextENS_14ObjectSizeOptsE

; Function Attrs: mustprogress nounwind uwtable
define linkonce_odr hidden noundef i32 @_ZNK4llvm5APInt11getBitWidthEv(ptr noundef nonnull align 8 dereferenceable(12) %0) #1 comdat align 2 {
  %2 = alloca ptr, align 8
  store ptr %0, ptr %2, align 8
  %3 = load ptr, ptr %2, align 8
  %4 = getelementptr inbounds nuw %"class.llvm::APInt", ptr %3, i32 0, i32 1
  %5 = load i32, ptr %4, align 8
  ret i32 %5
}

; Function Attrs: mustprogress nounwind uwtable
define linkonce_odr hidden noundef zeroext i1 @_ZN4llvm15SizeOffsetAPInt5knownERKNS_5APIntE(ptr noundef nonnull align 8 dereferenceable(12) %0) #1 comdat align 2 {
  %2 = alloca ptr, align 8
  store ptr %0, ptr %2, align 8
  %3 = load ptr, ptr %2, align 8
  %4 = call noundef i32 @_ZNK4llvm5APInt11getBitWidthEv(ptr noundef nonnull align 8 dereferenceable(12) %3)
  %5 = icmp ugt i32 %4, 1
  ret i1 %5
}

; Function Attrs: mustprogress nounwind uwtable
define linkonce_odr hidden void @_ZN4llvm14SizeOffsetTypeINS_5APIntENS_15SizeOffsetAPIntEED2Ev(ptr noundef nonnull align 8 dereferenceable(32) %0) unnamed_addr #1 comdat align 2 {
  %2 = alloca ptr, align 8
  store ptr %0, ptr %2, align 8
  %3 = load ptr, ptr %2, align 8
  %4 = getelementptr inbounds nuw %"struct.llvm::SizeOffsetType", ptr %3, i32 0, i32 1
  call void @_ZN4llvm5APIntD2Ev(ptr noundef nonnull align 8 dereferenceable(12) %4) #2
  %5 = getelementptr inbounds nuw %"struct.llvm::SizeOffsetType", ptr %3, i32 0, i32 0
  call void @_ZN4llvm5APIntD2Ev(ptr noundef nonnull align 8 dereferenceable(12) %5) #2
  ret void
}

; Function Attrs: mustprogress nounwind uwtable
define linkonce_odr hidden noundef zeroext i1 @_ZNK4llvm5APInt12needsCleanupEv(ptr noundef nonnull align 8 dereferenceable(12) %0) #1 comdat align 2 {
  %2 = alloca ptr, align 8
  store ptr %0, ptr %2, align 8
  %3 = load ptr, ptr %2, align 8
  %4 = call noundef zeroext i1 @_ZNK4llvm5APInt12isSingleWordEv(ptr noundef nonnull align 8 dereferenceable(12) %3)
  %5 = xor i1 %4, true
  ret i1 %5
}

; Function Attrs: mustprogress nounwind uwtable
define linkonce_odr hidden noundef zeroext i1 @_ZNK4llvm5APInt12isSingleWordEv(ptr noundef nonnull align 8 dereferenceable(12) %0) #1 comdat align 2 {
  %2 = alloca ptr, align 8
  store ptr %0, ptr %2, align 8
  %3 = load ptr, ptr %2, align 8
  %4 = getelementptr inbounds nuw %"class.llvm::APInt", ptr %3, i32 0, i32 1
  %5 = load i32, ptr %4, align 8
  %6 = icmp ule i32 %5, 64
  ret i1 %6
}

; Function Attrs: mustprogress nounwind uwtable
define linkonce_odr hidden noundef zeroext i1 @_ZNK4llvm14SizeOffsetTypeINS_5APIntENS_15SizeOffsetAPIntEE11knownOffsetEv(ptr noundef nonnull align 8 dereferenceable(32) %0) #1 comdat align 2 {
  %2 = alloca ptr, align 8
  store ptr %0, ptr %2, align 8
  %3 = load ptr, ptr %2, align 8
  %4 = getelementptr inbounds nuw %"struct.llvm::SizeOffsetType", ptr %3, i32 0, i32 1
  %5 = call noundef zeroext i1 @_ZN4llvm15SizeOffsetAPInt5knownERKNS_5APIntE(ptr noundef nonnull align 8 dereferenceable(12) %4)
  ret i1 %5
}

; Function Attrs: mustprogress nounwind uwtable
define linkonce_odr hidden noundef zeroext i1 @_ZNK4llvm14SizeOffsetTypeINS_5APIntENS_15SizeOffsetAPIntEE9knownSizeEv(ptr noundef nonnull align 8 dereferenceable(32) %0) #1 comdat align 2 {
  %2 = alloca ptr, align 8
  store ptr %0, ptr %2, align 8
  %3 = load ptr, ptr %2, align 8
  %4 = getelementptr inbounds nuw %"struct.llvm::SizeOffsetType", ptr %3, i32 0, i32 0
  %5 = call noundef zeroext i1 @_ZN4llvm15SizeOffsetAPInt5knownERKNS_5APIntE(ptr noundef nonnull align 8 dereferenceable(12) %4)
  ret i1 %5
}

; Function Attrs: mustprogress nounwind uwtable
define linkonce_odr hidden void @_ZN4llvm23ObjectSizeOffsetVisitorD2Ev(ptr noundef nonnull align 8 dereferenceable(388) %0) unnamed_addr #1 comdat align 2 {
  %2 = alloca ptr, align 8
  store ptr %0, ptr %2, align 8
  %3 = load ptr, ptr %2, align 8
  %4 = getelementptr inbounds nuw %"class.llvm::ObjectSizeOffsetVisitor", ptr %3, i32 0, i32 6
  call void @_ZN4llvm13SmallDenseMapIPNS_11InstructionENS_15SizeOffsetAPIntELj8ENS_12DenseMapInfoIS2_vEENS_6detail12DenseMapPairIS2_S3_EEED2Ev(ptr noundef nonnull align 8 dereferenceable(328) %4) #2
  %5 = getelementptr inbounds nuw %"class.llvm::ObjectSizeOffsetVisitor", ptr %3, i32 0, i32 5
  call void @_ZN4llvm5APIntD2Ev(ptr noundef nonnull align 8 dereferenceable(12) %5) #2
  ret void
}

; Function Attrs: mustprogress nounwind uwtable
define linkonce_odr hidden void @_ZN4llvm15SizeOffsetAPIntD2Ev(ptr noundef nonnull align 8 dereferenceable(32) %0) unnamed_addr #1 comdat align 2 {
  %2 = alloca ptr, align 8
  store ptr %0, ptr %2, align 8
  %3 = load ptr, ptr %2, align 8
  call void @_ZN4llvm14SizeOffsetTypeINS_5APIntENS_15SizeOffsetAPIntEED2Ev(ptr noundef nonnull align 8 dereferenceable(32) %3) #2
  ret void
}

; Function Attrs: mustprogress nounwind uwtable
define linkonce_odr hidden void @_ZN4llvm5APIntD2Ev(ptr noundef nonnull align 8 dereferenceable(12) %0) unnamed_addr #1 comdat align 2 {
  %2 = alloca ptr, align 8
  store ptr %0, ptr %2, align 8
  %3 = load ptr, ptr %2, align 8
  %4 = call noundef zeroext i1 @_ZNK4llvm5APInt12needsCleanupEv(ptr noundef nonnull align 8 dereferenceable(12) %3)
  br i1 %4, label %5, label %11

5:                                                ; preds = %1
  %6 = getelementptr inbounds nuw %"class.llvm::APInt", ptr %3, i32 0, i32 0
  %7 = load ptr, ptr %6, align 8
  %8 = icmp eq ptr %7, null
  br i1 %8, label %10, label %9

9:                                                ; preds = %5
  call void @_ZdaPv(ptr noundef %7) #11
  br label %10

10:                                               ; preds = %9, %5
  br label %11

11:                                               ; preds = %10, %1
  ret void
}

; Function Attrs: mustprogress nounwind uwtable
define linkonce_odr hidden noundef i64 @_ZNK4llvm5APInt12getZExtValueEv(ptr noundef nonnull align 8 dereferenceable(12) %0) #1 comdat align 2 {
  %2 = alloca i64, align 8
  %3 = alloca ptr, align 8
  store ptr %0, ptr %3, align 8
  %4 = load ptr, ptr %3, align 8
  %5 = call noundef zeroext i1 @_ZNK4llvm5APInt12isSingleWordEv(ptr noundef nonnull align 8 dereferenceable(12) %4)
  br i1 %5, label %6, label %9

6:                                                ; preds = %1
  %7 = getelementptr inbounds nuw %"class.llvm::APInt", ptr %4, i32 0, i32 0
  %8 = load i64, ptr %7, align 8
  store i64 %8, ptr %2, align 8
  br label %14

9:                                                ; preds = %1
  %10 = getelementptr inbounds nuw %"class.llvm::APInt", ptr %4, i32 0, i32 0
  %11 = load ptr, ptr %10, align 8
  %12 = getelementptr inbounds i64, ptr %11, i64 0
  %13 = load i64, ptr %12, align 8
  store i64 %13, ptr %2, align 8
  br label %14

14:                                               ; preds = %9, %6
  %15 = load i64, ptr %2, align 8
  ret i64 %15
}

; Function Attrs: mustprogress nounwind uwtable
define linkonce_odr hidden noundef zeroext i1 @_ZNK4llvm14SizeOffsetTypeINS_5APIntENS_15SizeOffsetAPIntEE9bothKnownEv(ptr noundef nonnull align 8 dereferenceable(32) %0) #1 comdat align 2 {
  %2 = alloca ptr, align 8
  store ptr %0, ptr %2, align 8
  %3 = load ptr, ptr %2, align 8
  %4 = call noundef zeroext i1 @_ZNK4llvm14SizeOffsetTypeINS_5APIntENS_15SizeOffsetAPIntEE9knownSizeEv(ptr noundef nonnull align 8 dereferenceable(32) %3)
  br i1 %4, label %5, label %7

5:                                                ; preds = %1
  %6 = call noundef zeroext i1 @_ZNK4llvm14SizeOffsetTypeINS_5APIntENS_15SizeOffsetAPIntEE11knownOffsetEv(ptr noundef nonnull align 8 dereferenceable(32) %3)
  br label %7

7:                                                ; preds = %5, %1
  %8 = phi i1 [ false, %1 ], [ %6, %5 ]
  ret i1 %8
}

; Function Attrs: mustprogress nounwind uwtable
define dso_local void @_ZN4llvm23ObjectSizeOffsetVisitor7computeEPNS_5ValueE(ptr dead_on_unwind noalias writable sret(%"struct.llvm::SizeOffsetAPInt") align 8 %0, ptr noundef nonnull align 8 dereferenceable(388) %1, ptr noundef %2) #1 align 2 {
  %4 = alloca ptr, align 8
  %5 = alloca ptr, align 8
  %6 = alloca ptr, align 8
  store ptr %0, ptr %4, align 8
  store ptr %1, ptr %5, align 8
  store ptr %2, ptr %6, align 8
  %7 = load ptr, ptr %5, align 8
  %8 = getelementptr inbounds nuw %"class.llvm::ObjectSizeOffsetVisitor", ptr %7, i32 0, i32 7
  store i32 0, ptr %8, align 8
  %9 = load ptr, ptr %6, align 8
  call void @_ZN4llvm23ObjectSizeOffsetVisitor11computeImplEPNS_5ValueE(ptr dead_on_unwind writable sret(%"struct.llvm::SizeOffsetAPInt") align 8 %0, ptr noundef nonnull align 8 dereferenceable(388) %7, ptr noundef %9)
  ret void
}

; Function Attrs: mustprogress nounwind uwtable
define dso_local noundef zeroext i1 @_ZN4llvm13getObjectSizeEPKNS_5ValueERmRKNS_10DataLayoutEPKNS_17TargetLibraryInfoENS_14ObjectSizeOptsE(ptr noundef %0, ptr noundef nonnull align 8 dereferenceable(8) %1, ptr noundef nonnull align 8 dereferenceable(512) %2, ptr noundef %3, i64 %4, ptr %5) #1 {
  %7 = alloca i1, align 1
  %8 = alloca %"struct.llvm::ObjectSizeOpts", align 8
  %9 = alloca ptr, align 8
  %10 = alloca ptr, align 8
  %11 = alloca ptr, align 8
  %12 = alloca ptr, align 8
  %13 = alloca %"class.llvm::ObjectSizeOffsetVisitor", align 8
  %14 = alloca %"struct.llvm::ObjectSizeOpts", align 8
  %15 = alloca %"struct.llvm::SizeOffsetAPInt", align 8
  %16 = alloca i32, align 4
  %17 = alloca %"class.llvm::APInt", align 8
  %18 = getelementptr inbounds nuw { i64, ptr }, ptr %8, i32 0, i32 0
  store i64 %4, ptr %18, align 8
  %19 = getelementptr inbounds nuw { i64, ptr }, ptr %8, i32 0, i32 1
  store ptr %5, ptr %19, align 8
  store ptr %0, ptr %9, align 8
  store ptr %1, ptr %10, align 8
  store ptr %2, ptr %11, align 8
  store ptr %3, ptr %12, align 8
  %20 = load ptr, ptr %11, align 8
  %21 = load ptr, ptr %12, align 8
  %22 = load ptr, ptr %9, align 8
  %23 = call noundef nonnull align 8 dereferenceable(8) ptr @_ZNK4llvm5Value10getContextEv(ptr noundef nonnull align 8 dereferenceable(24) %22)
  call void @llvm.memcpy.p0.p0.i64(ptr align 8 %14, ptr align 8 %8, i64 16, i1 false)
  %24 = getelementptr inbounds nuw { i64, ptr }, ptr %14, i32 0, i32 0
  %25 = load i64, ptr %24, align 8
  %26 = getelementptr inbounds nuw { i64, ptr }, ptr %14, i32 0, i32 1
  %27 = load ptr, ptr %26, align 8
  call void @_ZN4llvm23ObjectSizeOffsetVisitorC1ERKNS_10DataLayoutEPKNS_17TargetLibraryInfoERNS_11LLVMContextENS_14ObjectSizeOptsE(ptr noundef nonnull align 8 dereferenceable(388) %13, ptr noundef nonnull align 8 dereferenceable(512) %20, ptr noundef %21, ptr noundef nonnull align 8 dereferenceable(8) %23, i64 %25, ptr %27)
  %28 = load ptr, ptr %9, align 8
  call void @_ZN4llvm23ObjectSizeOffsetVisitor7computeEPNS_5ValueE(ptr dead_on_unwind writable sret(%"struct.llvm::SizeOffsetAPInt") align 8 %15, ptr noundef nonnull align 8 dereferenceable(388) %13, ptr noundef %28)
  %29 = call noundef zeroext i1 @_ZNK4llvm14SizeOffsetTypeINS_5APIntENS_15SizeOffsetAPIntEE9bothKnownEv(ptr noundef nonnull align 8 dereferenceable(32) %15)
  br i1 %29, label %31, label %30

30:                                               ; preds = %6
  store i1 false, ptr %7, align 1
  store i32 1, ptr %16, align 4
  br label %34

31:                                               ; preds = %6
  call void @_ZL19getSizeWithOverflowRKN4llvm15SizeOffsetAPIntE(ptr dead_on_unwind writable sret(%"class.llvm::APInt") align 8 %17, ptr noundef nonnull align 8 dereferenceable(32) %15)
  %32 = call noundef i64 @_ZNK4llvm5APInt12getZExtValueEv(ptr noundef nonnull align 8 dereferenceable(12) %17)
  %33 = load ptr, ptr %10, align 8
  store i64 %32, ptr %33, align 8
  call void @_ZN4llvm5APIntD2Ev(ptr noundef nonnull align 8 dereferenceable(12) %17) #2
  store i1 true, ptr %7, align 1
  store i32 1, ptr %16, align 4
  br label %34

34:                                               ; preds = %31, %30
  call void @_ZN4llvm15SizeOffsetAPIntD2Ev(ptr noundef nonnull align 8 dereferenceable(32) %15) #2
  call void @_ZN4llvm23ObjectSizeOffsetVisitorD2Ev(ptr noundef nonnull align 8 dereferenceable(388) %13) #2
  %35 = load i1, ptr %7, align 1
  ret i1 %35
}