; Function Attrs: mustprogress nounwind uwtable
define dso_local noundef zeroext i1 @_ZN4llvm13getObjectSizeEPKNS_5ValueERmRKNS_10DataLayoutEPKNS_17TargetLibraryInfoENS_14ObjectSizeOptsE(ptr noundef nonnull %0, ptr nocapture noundef nonnull writeonly align 8 dereferenceable(8) %1, ptr noundef nonnull align 8 dereferenceable(512) %2, ptr noundef %3, i64 %4, ptr %5) local_unnamed_addr #0 {
  %7 = alloca %"class.llvm::ObjectSizeOffsetVisitor", align 8
  %8 = alloca %"struct.llvm::SizeOffsetAPInt", align 8
  %9 = alloca %"class.llvm::APInt", align 8
  %10 = tail call noundef nonnull align 8 dereferenceable(8) ptr @_ZNK4llvm5Value10getContextEv(ptr noundef nonnull align 8 dereferenceable(24) %0) #20
  call void @_ZN4llvm23ObjectSizeOffsetVisitorC1ERKNS_10DataLayoutEPKNS_17TargetLibraryInfoERNS_11LLVMContextENS_14ObjectSizeOptsE(ptr noundef nonnull align 8 dereferenceable(388) %7, ptr noundef nonnull align 8 dereferenceable(512) %2, ptr noundef %3, ptr noundef nonnull align 8 dereferenceable(8) %10, i64 %4, ptr %5) #20
  %11 = getelementptr inbounds nuw i8, ptr %7, i64 384
  store i32 0, ptr %11, align 8, !noalias !31
  call void @_ZN4llvm23ObjectSizeOffsetVisitor11computeImplEPNS_5ValueE(ptr dead_on_unwind nonnull writable sret(%"struct.llvm::SizeOffsetAPInt") align 8 %8, ptr noundef nonnull align 8 dereferenceable(388) %7, ptr noundef nonnull %0)
  %12 = getelementptr inbounds nuw i8, ptr %8, i64 8
  %13 = load i32, ptr %12, align 8
  %14 = icmp ugt i32 %13, 1
  %15 = getelementptr inbounds i8, ptr %8, i64 24
  %16 = load i32, ptr %15, align 8
  %17 = icmp ugt i32 %16, 1
  %18 = select i1 %14, i1 %17, i1 false
  br i1 %18, label %19, label %_ZN4llvm5APIntD2Ev.exit

19:                                               ; preds = %6
  call fastcc void @_ZL19getSizeWithOverflowRKN4llvm15SizeOffsetAPIntE(ptr dead_on_unwind noalias nonnull writable align 8 %9, ptr noundef nonnull align 8 dereferenceable(32) %8)
  %20 = getelementptr inbounds nuw i8, ptr %9, i64 8
  %21 = load i32, ptr %20, align 8
  %22 = icmp ult i32 %21, 65
  %23 = load ptr, ptr %9, align 8
  %.0.in.i = select i1 %22, ptr %9, ptr %23
  %.0.i = load i64, ptr %.0.in.i, align 8
  store i64 %.0.i, ptr %1, align 8
  %24 = icmp eq ptr %23, null
  %or.cond = select i1 %22, i1 true, i1 %24
  br i1 %or.cond, label %_ZN4llvm5APIntD2Ev.exitthread-pre-split, label %25

25:                                               ; preds = %19
  call void @_ZdaPv(ptr noundef nonnull %23) #22
  br label %_ZN4llvm5APIntD2Ev.exitthread-pre-split

_ZN4llvm5APIntD2Ev.exitthread-pre-split:          ; preds = %19, %25
  %.pr = load i32, ptr %15, align 8
  br label %_ZN4llvm5APIntD2Ev.exit

_ZN4llvm5APIntD2Ev.exit:                          ; preds = %_ZN4llvm5APIntD2Ev.exitthread-pre-split, %6
  %26 = phi i32 [ %.pr, %_ZN4llvm5APIntD2Ev.exitthread-pre-split ], [ %16, %6 ]
  %27 = icmp ugt i32 %26, 64
  br i1 %27, label %28, label %_ZN4llvm5APIntD2Ev.exit.i.i

28:                                               ; preds = %_ZN4llvm5APIntD2Ev.exit
  %29 = getelementptr inbounds nuw i8, ptr %8, i64 16
  %30 = load ptr, ptr %29, align 8
  %31 = icmp eq ptr %30, null
  br i1 %31, label %_ZN4llvm5APIntD2Ev.exit.i.i, label %32

32:                                               ; preds = %28
  call void @_ZdaPv(ptr noundef nonnull %30) #22
  br label %_ZN4llvm5APIntD2Ev.exit.i.i

_ZN4llvm5APIntD2Ev.exit.i.i:                      ; preds = %32, %28, %_ZN4llvm5APIntD2Ev.exit
  %33 = load i32, ptr %12, align 8
  %34 = icmp ugt i32 %33, 64
  br i1 %34, label %35, label %_ZN4llvm15SizeOffsetAPIntD2Ev.exit

35:                                               ; preds = %_ZN4llvm5APIntD2Ev.exit.i.i
  %36 = load ptr, ptr %8, align 8
  %37 = icmp eq ptr %36, null
  br i1 %37, label %_ZN4llvm15SizeOffsetAPIntD2Ev.exit, label %38

38:                                               ; preds = %35
  call void @_ZdaPv(ptr noundef nonnull %36) #22
  br label %_ZN4llvm15SizeOffsetAPIntD2Ev.exit

_ZN4llvm15SizeOffsetAPIntD2Ev.exit:               ; preds = %_ZN4llvm5APIntD2Ev.exit.i.i, %35, %38
  %39 = getelementptr inbounds nuw i8, ptr %7, i64 56
  call void @_ZN4llvm13SmallDenseMapIPNS_11InstructionENS_15SizeOffsetAPIntELj8ENS_12DenseMapInfoIS2_vEENS_6detail12DenseMapPairIS2_S3_EEED2Ev(ptr noundef nonnull align 8 dereferenceable(328) %39) #20
  %40 = getelementptr inbounds i8, ptr %7, i64 48
  %41 = load i32, ptr %40, align 8
  %42 = icmp ugt i32 %41, 64
  br i1 %42, label %43, label %_ZN4llvm23ObjectSizeOffsetVisitorD2Ev.exit

43:                                               ; preds = %_ZN4llvm15SizeOffsetAPIntD2Ev.exit
  %44 = getelementptr inbounds nuw i8, ptr %7, i64 40
  %45 = load ptr, ptr %44, align 8
  %46 = icmp eq ptr %45, null
  br i1 %46, label %_ZN4llvm23ObjectSizeOffsetVisitorD2Ev.exit, label %47

47:                                               ; preds = %43
  call void @_ZdaPv(ptr noundef nonnull %45) #22
  br label %_ZN4llvm23ObjectSizeOffsetVisitorD2Ev.exit

_ZN4llvm23ObjectSizeOffsetVisitorD2Ev.exit:       ; preds = %_ZN4llvm15SizeOffsetAPIntD2Ev.exit, %43, %47
  ret i1 %18
}